target datalayout = "e-m:e-p270:32:32-p271:32:32-p272:64:64-i64:64-i128:128-f80:128-n8:16:32:64-S128"
target triple = "x86_64-pc-linux-gnu"

%struct.hwloc_topology = type { i32, i32, i32, ptr, ptr, i64, [20 x i32], [20 x i32], i64, i64, i32, ptr, i64, ptr, i64, [6 x %struct.hwloc_special_level_s], ptr, ptr, %struct.hwloc_binding_hooks, %struct.hwloc_topology_support, %struct.hwloc_infos_s, ptr, ptr, i32, ptr, ptr, i32, i32, ptr, i32, i32, ptr, i32, i32, i32, [5 x float], i32, ptr, ptr, i32, i32, ptr, i32, %struct.hwloc_numanode_attr_s, i32, i32, ptr, i64, i32, ptr, ptr, ptr }
%struct.hwloc_special_level_s = type { i32, ptr, ptr, ptr }
%struct.hwloc_binding_hooks = type { ptr, ptr, ptr, ptr, ptr, ptr, ptr, ptr, ptr, ptr, ptr, ptr, ptr, ptr, ptr, ptr, ptr, ptr, ptr, ptr, ptr, ptr, ptr, ptr }
%struct.hwloc_topology_support = type { ptr, ptr, ptr, ptr }
%struct.hwloc_infos_s = type { ptr, i32, i32 }
%struct.hwloc_numanode_attr_s = type { i64, i32, ptr }
%struct.hwloc_internal_memattr_s = type { ptr, i64, i32, i32, ptr }

@.str = private unnamed_addr constant [9 x i8] c"Capacity\00", align 1
@.str.1 = private unnamed_addr constant [9 x i8] c"Locality\00", align 1
@.str.2 = private unnamed_addr constant [10 x i8] c"Bandwidth\00", align 1
@.str.3 = private unnamed_addr constant [14 x i8] c"ReadBandwidth\00", align 1
@.str.4 = private unnamed_addr constant [15 x i8] c"WriteBandwidth\00", align 1
@.str.5 = private unnamed_addr constant [8 x i8] c"Latency\00", align 1
@.str.6 = private unnamed_addr constant [12 x i8] c"ReadLatency\00", align 1
@.str.7 = private unnamed_addr constant [13 x i8] c"WriteLatency\00", align 1

; Function Attrs: nounwind uwtable
define internal void @hwloc__setup_memattr(ptr noundef %0, ptr noundef %1, i64 noundef %2, i64 noundef %3) #0 {
  %5 = alloca ptr, align 8
  %6 = alloca ptr, align 8
  %7 = alloca i64, align 8
  %8 = alloca i64, align 8
  store ptr %0, ptr %5, align 8, !tbaa !34
  store ptr %1, ptr %6, align 8, !tbaa !35
  store i64 %2, ptr %7, align 8, !tbaa !37
  store i64 %3, ptr %8, align 8, !tbaa !37
  %9 = load ptr, ptr %6, align 8, !tbaa !35
  %10 = load ptr, ptr %5, align 8, !tbaa !34
  %11 = getelementptr inbounds nuw %struct.hwloc_internal_memattr_s, ptr %10, i32 0, i32 0
  store ptr %9, ptr %11, align 8, !tbaa !38
  %12 = load i64, ptr %7, align 8, !tbaa !37
  %13 = load ptr, ptr %5, align 8, !tbaa !34
  %14 = getelementptr inbounds nuw %struct.hwloc_internal_memattr_s, ptr %13, i32 0, i32 1
  store i64 %12, ptr %14, align 8, !tbaa !41
  %15 = load i64, ptr %8, align 8, !tbaa !37
  %16 = trunc i64 %15 to i32
  %17 = load ptr, ptr %5, align 8, !tbaa !34
  %18 = getelementptr inbounds nuw %struct.hwloc_internal_memattr_s, ptr %17, i32 0, i32 2
  store i32 %16, ptr %18, align 8, !tbaa !42
  %19 = load ptr, ptr %5, align 8, !tbaa !34
  %20 = getelementptr inbounds nuw %struct.hwloc_internal_memattr_s, ptr %19, i32 0, i32 3
  store i32 0, ptr %20, align 4, !tbaa !43
  %21 = load ptr, ptr %5, align 8, !tbaa !34
  %22 = getelementptr inbounds nuw %struct.hwloc_internal_memattr_s, ptr %21, i32 0, i32 4
  store ptr null, ptr %22, align 8, !tbaa !44
  ret void
}

; Function Attrs: nounwind uwtable
define hidden void @hwloc_internal_memattrs_prepare(ptr noundef %0) #0 {
  %2 = alloca ptr, align 8
  store ptr %0, ptr %2, align 8, !tbaa !3
  %3 = call noalias ptr @malloc(i64 noundef 256) #13
  %4 = load ptr, ptr %2, align 8, !tbaa !3
  %5 = getelementptr inbounds nuw %struct.hwloc_topology, ptr %4, i32 0, i32 28
  store ptr %3, ptr %5, align 8, !tbaa !33
  %6 = load ptr, ptr %2, align 8, !tbaa !3
  %7 = getelementptr inbounds nuw %struct.hwloc_topology, ptr %6, i32 0, i32 28
  %8 = load ptr, ptr %7, align 8, !tbaa !33
  %9 = icmp ne ptr %8, null
  br i1 %9, label %11, label %10

10:                                               ; preds = %1
  br label %46

11:                                               ; preds = %1
  %12 = load ptr, ptr %2, align 8, !tbaa !3
  %13 = getelementptr inbounds nuw %struct.hwloc_topology, ptr %12, i32 0, i32 28
  %14 = load ptr, ptr %13, align 8, !tbaa !33
  %15 = getelementptr inbounds %struct.hwloc_internal_memattr_s, ptr %14, i64 0
  call void @hwloc__setup_memattr(ptr noundef %15, ptr noundef @.str, i64 noundef 1, i64 noundef 5)
  %16 = load ptr, ptr %2, align 8, !tbaa !3
  %17 = getelementptr inbounds nuw %struct.hwloc_topology, ptr %16, i32 0, i32 28
  %18 = load ptr, ptr %17, align 8, !tbaa !33
  %19 = getelementptr inbounds %struct.hwloc_internal_memattr_s, ptr %18, i64 1
  call void @hwloc__setup_memattr(ptr noundef %19, ptr noundef @.str.1, i64 noundef 2, i64 noundef 5)
  %20 = load ptr, ptr %2, align 8, !tbaa !3
  %21 = getelementptr inbounds nuw %struct.hwloc_topology, ptr %20, i32 0, i32 28
  %22 = load ptr, ptr %21, align 8, !tbaa !33
  %23 = getelementptr inbounds %struct.hwloc_internal_memattr_s, ptr %22, i64 2
  call void @hwloc__setup_memattr(ptr noundef %23, ptr noundef @.str.2, i64 noundef 5, i64 noundef 1)
  %24 = load ptr, ptr %2, align 8, !tbaa !3
  %25 = getelementptr inbounds nuw %struct.hwloc_topology, ptr %24, i32 0, i32 28
  %26 = load ptr, ptr %25, align 8, !tbaa !33
  %27 = getelementptr inbounds %struct.hwloc_internal_memattr_s, ptr %26, i64 4
  call void @hwloc__setup_memattr(ptr noundef %27, ptr noundef @.str.3, i64 noundef 5, i64 noundef 1)
  %28 = load ptr, ptr %2, align 8, !tbaa !3
  %29 = getelementptr inbounds nuw %struct.hwloc_topology, ptr %28, i32 0, i32 28
  %30 = load ptr, ptr %29, align 8, !tbaa !33
  %31 = getelementptr inbounds %struct.hwloc_internal_memattr_s, ptr %30, i64 5
  call void @hwloc__setup_memattr(ptr noundef %31, ptr noundef @.str.4, i64 noundef 5, i64 noundef 1)
  %32 = load ptr, ptr %2, align 8, !tbaa !3
  %33 = getelementptr inbounds nuw %struct.hwloc_topology, ptr %32, i32 0, i32 28
  %34 = load ptr, ptr %33, align 8, !tbaa !33
  %35 = getelementptr inbounds %struct.hwloc_internal_memattr_s, ptr %34, i64 3
  call void @hwloc__setup_memattr(ptr noundef %35, ptr noundef @.str.5, i64 noundef 6, i64 noundef 1)
  %36 = load ptr, ptr %2, align 8, !tbaa !3
  %37 = getelementptr inbounds nuw %struct.hwloc_topology, ptr %36, i32 0, i32 28
  %38 = load ptr, ptr %37, align 8, !tbaa !33
  %39 = getelementptr inbounds %struct.hwloc_internal_memattr_s, ptr %38, i64 6
  call void @hwloc__setup_memattr(ptr noundef %39, ptr noundef @.str.6, i64 noundef 6, i64 noundef 1)
  %40 = load ptr, ptr %2, align 8, !tbaa !3
  %41 = getelementptr inbounds nuw %struct.hwloc_topology, ptr %40, i32 0, i32 28
  %42 = load ptr, ptr %41, align 8, !tbaa !33
  %43 = getelementptr inbounds %struct.hwloc_internal_memattr_s, ptr %42, i64 7
  call void @hwloc__setup_memattr(ptr noundef %43, ptr noundef @.str.7, i64 noundef 6, i64 noundef 1)
  %44 = load ptr, ptr %2, align 8, !tbaa !3
  %45 = getelementptr inbounds nuw %struct.hwloc_topology, ptr %44, i32 0, i32 27
  store i32 8, ptr %45, align 4, !tbaa !8
  br label %46

46:                                               ; preds = %11, %10
  ret void
}