; Function Attrs: mustprogress nofree nounwind willreturn memory(write, inaccessiblemem: readwrite) uwtable
define hidden void @hwloc_internal_memattrs_prepare(ptr noundef writeonly captures(none) initializes((752, 760)) %0) local_unnamed_addr #1 {
  %2 = tail call noalias dereferenceable_or_null(256) ptr @malloc(i64 noundef 256) #28
  %3 = getelementptr inbounds nuw i8, ptr %0, i64 752
  store ptr %2, ptr %3, align 8, !tbaa !31
  %.not = icmp eq ptr %2, null
  br i1 %.not, label %45, label %4

4:                                                ; preds = %1
  store ptr @.str, ptr %2, align 8, !tbaa !32
  %5 = getelementptr inbounds nuw i8, ptr %2, i64 8
  store i64 1, ptr %5, align 8, !tbaa !36
  %6 = getelementptr inbounds nuw i8, ptr %2, i64 16
  store i32 5, ptr %6, align 8, !tbaa !37
  %7 = getelementptr inbounds nuw i8, ptr %2, i64 20
  store i32 0, ptr %7, align 4, !tbaa !38
  %8 = getelementptr inbounds nuw i8, ptr %2, i64 24
  store ptr null, ptr %8, align 8, !tbaa !39
  %9 = getelementptr inbounds nuw i8, ptr %2, i64 32
  store ptr @.str.1, ptr %9, align 8, !tbaa !32
  %10 = getelementptr inbounds nuw i8, ptr %2, i64 40
  store i64 2, ptr %10, align 8, !tbaa !36
  %11 = getelementptr inbounds nuw i8, ptr %2, i64 48
  store i32 5, ptr %11, align 8, !tbaa !37
  %12 = getelementptr inbounds nuw i8, ptr %2, i64 52
  store i32 0, ptr %12, align 4, !tbaa !38
  %13 = getelementptr inbounds nuw i8, ptr %2, i64 56
  store ptr null, ptr %13, align 8, !tbaa !39
  %14 = getelementptr inbounds nuw i8, ptr %2, i64 64
  store ptr @.str.2, ptr %14, align 8, !tbaa !32
  %15 = getelementptr inbounds nuw i8, ptr %2, i64 72
  store i64 5, ptr %15, align 8, !tbaa !36
  %16 = getelementptr inbounds nuw i8, ptr %2, i64 80
  store i32 1, ptr %16, align 8, !tbaa !37
  %17 = getelementptr inbounds nuw i8, ptr %2, i64 84
  store i32 0, ptr %17, align 4, !tbaa !38
  %18 = getelementptr inbounds nuw i8, ptr %2, i64 88
  store ptr null, ptr %18, align 8, !tbaa !39
  %19 = getelementptr inbounds nuw i8, ptr %2, i64 128
  store ptr @.str.3, ptr %19, align 8, !tbaa !32
  %20 = getelementptr inbounds nuw i8, ptr %2, i64 136
  store i64 5, ptr %20, align 8, !tbaa !36
  %21 = getelementptr inbounds nuw i8, ptr %2, i64 144
  store i32 1, ptr %21, align 8, !tbaa !37
  %22 = getelementptr inbounds nuw i8, ptr %2, i64 148
  store i32 0, ptr %22, align 4, !tbaa !38
  %23 = getelementptr inbounds nuw i8, ptr %2, i64 152
  store ptr null, ptr %23, align 8, !tbaa !39
  %24 = getelementptr inbounds nuw i8, ptr %2, i64 160
  store ptr @.str.4, ptr %24, align 8, !tbaa !32
  %25 = getelementptr inbounds nuw i8, ptr %2, i64 168
  store i64 5, ptr %25, align 8, !tbaa !36
  %26 = getelementptr inbounds nuw i8, ptr %2, i64 176
  store i32 1, ptr %26, align 8, !tbaa !37
  %27 = getelementptr inbounds nuw i8, ptr %2, i64 180
  store i32 0, ptr %27, align 4, !tbaa !38
  %28 = getelementptr inbounds nuw i8, ptr %2, i64 184
  store ptr null, ptr %28, align 8, !tbaa !39
  %29 = getelementptr inbounds nuw i8, ptr %2, i64 96
  store ptr @.str.5, ptr %29, align 8, !tbaa !32
  %30 = getelementptr inbounds nuw i8, ptr %2, i64 104
  store i64 6, ptr %30, align 8, !tbaa !36
  %31 = getelementptr inbounds nuw i8, ptr %2, i64 112
  store i32 1, ptr %31, align 8, !tbaa !37
  %32 = getelementptr inbounds nuw i8, ptr %2, i64 116
  store i32 0, ptr %32, align 4, !tbaa !38
  %33 = getelementptr inbounds nuw i8, ptr %2, i64 120
  store ptr null, ptr %33, align 8, !tbaa !39
  %34 = getelementptr inbounds nuw i8, ptr %2, i64 192
  store ptr @.str.6, ptr %34, align 8, !tbaa !32
  %35 = getelementptr inbounds nuw i8, ptr %2, i64 200
  store i64 6, ptr %35, align 8, !tbaa !36
  %36 = getelementptr inbounds nuw i8, ptr %2, i64 208
  store i32 1, ptr %36, align 8, !tbaa !37
  %37 = getelementptr inbounds nuw i8, ptr %2, i64 212
  store i32 0, ptr %37, align 4, !tbaa !38
  %38 = getelementptr inbounds nuw i8, ptr %2, i64 216
  store ptr null, ptr %38, align 8, !tbaa !39
  %39 = getelementptr inbounds nuw i8, ptr %2, i64 224
  store ptr @.str.7, ptr %39, align 8, !tbaa !32
  %40 = getelementptr inbounds nuw i8, ptr %2, i64 232
  store i64 6, ptr %40, align 8, !tbaa !36
  %41 = getelementptr inbounds nuw i8, ptr %2, i64 240
  store i32 1, ptr %41, align 8, !tbaa !37
  %42 = getelementptr inbounds nuw i8, ptr %2, i64 244
  store i32 0, ptr %42, align 4, !tbaa !38
  %43 = getelementptr inbounds nuw i8, ptr %2, i64 248
  store ptr null, ptr %43, align 8, !tbaa !39
  %44 = getelementptr inbounds nuw i8, ptr %0, i64 748
  store i32 8, ptr %44, align 4, !tbaa !3
  br label %45

45:                                               ; preds = %1, %4
  ret void
}